target datalayout = "e-m:e-p270:32:32-p271:32:32-p272:64:64-i64:64-i128:128-f80:128-n8:16:32:64-S128"
target triple = "x86_64-pc-linux-gnu"

; Function Attrs: nounwind uwtable
define i32 @denseGEQRF(ptr noundef %0, i64 noundef %1, i64 noundef %2, ptr noundef %3, ptr noundef %4) #0 {
  %6 = alloca ptr, align 8
  %7 = alloca i64, align 8
  %8 = alloca i64, align 8
  %9 = alloca ptr, align 8
  %10 = alloca ptr, align 8
  %11 = alloca double, align 8
  %12 = alloca double, align 8
  %13 = alloca double, align 8
  %14 = alloca double, align 8
  %15 = alloca double, align 8
  %16 = alloca ptr, align 8
  %17 = alloca ptr, align 8
  %18 = alloca i64, align 8
  %19 = alloca i64, align 8
  %20 = alloca i64, align 8
  store ptr %0, ptr %6, align 8, !tbaa !18
  store i64 %1, ptr %7, align 8, !tbaa !19
  store i64 %2, ptr %8, align 8, !tbaa !19
  store ptr %3, ptr %9, align 8, !tbaa !20
  store ptr %4, ptr %10, align 8, !tbaa !20
  call void @llvm.lifetime.start.p0(i64 8, ptr %11) #4
  call void @llvm.lifetime.start.p0(i64 8, ptr %12) #4
  call void @llvm.lifetime.start.p0(i64 8, ptr %13) #4
  call void @llvm.lifetime.start.p0(i64 8, ptr %14) #4
  call void @llvm.lifetime.start.p0(i64 8, ptr %15) #4
  call void @llvm.lifetime.start.p0(i64 8, ptr %16) #4
  call void @llvm.lifetime.start.p0(i64 8, ptr %17) #4
  call void @llvm.lifetime.start.p0(i64 8, ptr %18) #4
  call void @llvm.lifetime.start.p0(i64 8, ptr %19) #4
  call void @llvm.lifetime.start.p0(i64 8, ptr %20) #4
  store i64 0, ptr %19, align 8, !tbaa !19
  br label %21

21:                                               ; preds = %216, %5
  %22 = load i64, ptr %19, align 8, !tbaa !19
  %23 = load i64, ptr %8, align 8, !tbaa !19
  %24 = icmp slt i64 %22, %23
  br i1 %24, label %25, label %219

25:                                               ; preds = %21
  %26 = load ptr, ptr %6, align 8, !tbaa !18
  %27 = load i64, ptr %19, align 8, !tbaa !19
  %28 = getelementptr inbounds ptr, ptr %26, i64 %27
  %29 = load ptr, ptr %28, align 8, !tbaa !20
  store ptr %29, ptr %16, align 8, !tbaa !20
  %30 = load ptr, ptr %16, align 8, !tbaa !20
  %31 = load i64, ptr %19, align 8, !tbaa !19
  %32 = getelementptr inbounds double, ptr %30, i64 %31
  %33 = load double, ptr %32, align 8, !tbaa !21
  store double %33, ptr %11, align 8, !tbaa !21
  %34 = load ptr, ptr %10, align 8, !tbaa !20
  %35 = getelementptr inbounds double, ptr %34, i64 0
  store double 1.000000e+00, ptr %35, align 8, !tbaa !21
  store double 0.000000e+00, ptr %12, align 8, !tbaa !21
  store i64 1, ptr %18, align 8, !tbaa !19
  br label %36

36:                                               ; preds = %62, %25
  %37 = load i64, ptr %18, align 8, !tbaa !19
  %38 = load i64, ptr %7, align 8, !tbaa !19
  %39 = load i64, ptr %19, align 8, !tbaa !19
  %40 = sub nsw i64 %38, %39
  %41 = icmp slt i64 %37, %40
  br i1 %41, label %42, label %65

42:                                               ; preds = %36
  %43 = load ptr, ptr %16, align 8, !tbaa !20
  %44 = load i64, ptr %18, align 8, !tbaa !19
  %45 = load i64, ptr %19, align 8, !tbaa !19
  %46 = add nsw i64 %44, %45
  %47 = getelementptr inbounds double, ptr %43, i64 %46
  %48 = load double, ptr %47, align 8, !tbaa !21
  %49 = load ptr, ptr %10, align 8, !tbaa !20
  %50 = load i64, ptr %18, align 8, !tbaa !19
  %51 = getelementptr inbounds double, ptr %49, i64 %50
  store double %48, ptr %51, align 8, !tbaa !21
  %52 = load ptr, ptr %10, align 8, !tbaa !20
  %53 = load i64, ptr %18, align 8, !tbaa !19
  %54 = getelementptr inbounds double, ptr %52, i64 %53
  %55 = load double, ptr %54, align 8, !tbaa !21
  %56 = load ptr, ptr %10, align 8, !tbaa !20
  %57 = load i64, ptr %18, align 8, !tbaa !19
  %58 = getelementptr inbounds double, ptr %56, i64 %57
  %59 = load double, ptr %58, align 8, !tbaa !21
  %60 = load double, ptr %12, align 8, !tbaa !21
  %61 = call double @llvm.fmuladd.f64(double %55, double %59, double %60)
  store double %61, ptr %12, align 8, !tbaa !21
  br label %62

62:                                               ; preds = %42
  %63 = load i64, ptr %18, align 8, !tbaa !19
  %64 = add nsw i64 %63, 1
  store i64 %64, ptr %18, align 8, !tbaa !19
  br label %36, !llvm.loop !43

65:                                               ; preds = %36
  %66 = load double, ptr %12, align 8, !tbaa !21
  %67 = fcmp une double %66, 0.000000e+00
  br i1 %67, label %68, label %118

68:                                               ; preds = %65
  %69 = load double, ptr %11, align 8, !tbaa !21
  %70 = load double, ptr %11, align 8, !tbaa !21
  %71 = load double, ptr %12, align 8, !tbaa !21
  %72 = call double @llvm.fmuladd.f64(double %69, double %70, double %71)
  %73 = call double @SUNRsqrt(double noundef %72)
  store double %73, ptr %13, align 8, !tbaa !21
  %74 = load double, ptr %11, align 8, !tbaa !21
  %75 = fcmp ole double %74, 0.000000e+00
  br i1 %75, label %76, label %80

76:                                               ; preds = %68
  %77 = load double, ptr %11, align 8, !tbaa !21
  %78 = load double, ptr %13, align 8, !tbaa !21
  %79 = fsub double %77, %78
  br label %87

80:                                               ; preds = %68
  %81 = load double, ptr %12, align 8, !tbaa !21
  %82 = fneg double %81
  %83 = load double, ptr %11, align 8, !tbaa !21
  %84 = load double, ptr %13, align 8, !tbaa !21
  %85 = fadd double %83, %84
  %86 = fdiv double %82, %85
  br label %87

87:                                               ; preds = %80, %76
  %88 = phi double [ %79, %76 ], [ %86, %80 ]
  store double %88, ptr %14, align 8, !tbaa !21
  %89 = load double, ptr %14, align 8, !tbaa !21
  %90 = load double, ptr %14, align 8, !tbaa !21
  %91 = fmul double %89, %90
  store double %91, ptr %15, align 8, !tbaa !21
  %92 = load double, ptr %15, align 8, !tbaa !21
  %93 = fmul double 2.000000e+00, %92
  %94 = load double, ptr %12, align 8, !tbaa !21
  %95 = load double, ptr %15, align 8, !tbaa !21
  %96 = fadd double %94, %95
  %97 = fdiv double %93, %96
  %98 = load ptr, ptr %9, align 8, !tbaa !20
  %99 = load i64, ptr %19, align 8, !tbaa !19
  %100 = getelementptr inbounds double, ptr %98, i64 %99
  store double %97, ptr %100, align 8, !tbaa !21
  store i64 1, ptr %18, align 8, !tbaa !19
  br label %101

101:                                              ; preds = %114, %87
  %102 = load i64, ptr %18, align 8, !tbaa !19
  %103 = load i64, ptr %7, align 8, !tbaa !19
  %104 = load i64, ptr %19, align 8, !tbaa !19
  %105 = sub nsw i64 %103, %104
  %106 = icmp slt i64 %102, %105
  br i1 %106, label %107, label %117

107:                                              ; preds = %101
  %108 = load double, ptr %14, align 8, !tbaa !21
  %109 = load ptr, ptr %10, align 8, !tbaa !20
  %110 = load i64, ptr %18, align 8, !tbaa !19
  %111 = getelementptr inbounds double, ptr %109, i64 %110
  %112 = load double, ptr %111, align 8, !tbaa !21
  %113 = fdiv double %112, %108
  store double %113, ptr %111, align 8, !tbaa !21
  br label %114

114:                                              ; preds = %107
  %115 = load i64, ptr %18, align 8, !tbaa !19
  %116 = add nsw i64 %115, 1
  store i64 %116, ptr %18, align 8, !tbaa !19
  br label %101, !llvm.loop !44

117:                                              ; preds = %101
  br label %122

118:                                              ; preds = %65
  %119 = load ptr, ptr %9, align 8, !tbaa !20
  %120 = load i64, ptr %19, align 8, !tbaa !19
  %121 = getelementptr inbounds double, ptr %119, i64 %120
  store double 0.000000e+00, ptr %121, align 8, !tbaa !21
  br label %122

122:                                              ; preds = %118, %117
  %123 = load i64, ptr %19, align 8, !tbaa !19
  store i64 %123, ptr %20, align 8, !tbaa !19
  br label %124

124:                                              ; preds = %186, %122
  %125 = load i64, ptr %20, align 8, !tbaa !19
  %126 = load i64, ptr %8, align 8, !tbaa !19
  %127 = icmp slt i64 %125, %126
  br i1 %127, label %128, label %189

128:                                              ; preds = %124
  %129 = load ptr, ptr %6, align 8, !tbaa !18
  %130 = load i64, ptr %20, align 8, !tbaa !19
  %131 = getelementptr inbounds ptr, ptr %129, i64 %130
  %132 = load ptr, ptr %131, align 8, !tbaa !20
  store ptr %132, ptr %17, align 8, !tbaa !20
  store double 0.000000e+00, ptr %12, align 8, !tbaa !21
  store i64 0, ptr %18, align 8, !tbaa !19
  br label %133

133:                                              ; preds = %152, %128
  %134 = load i64, ptr %18, align 8, !tbaa !19
  %135 = load i64, ptr %7, align 8, !tbaa !19
  %136 = load i64, ptr %19, align 8, !tbaa !19
  %137 = sub nsw i64 %135, %136
  %138 = icmp slt i64 %134, %137
  br i1 %138, label %139, label %155

139:                                              ; preds = %133
  %140 = load ptr, ptr %17, align 8, !tbaa !20
  %141 = load i64, ptr %18, align 8, !tbaa !19
  %142 = load i64, ptr %19, align 8, !tbaa !19
  %143 = add nsw i64 %141, %142
  %144 = getelementptr inbounds double, ptr %140, i64 %143
  %145 = load double, ptr %144, align 8, !tbaa !21
  %146 = load ptr, ptr %10, align 8, !tbaa !20
  %147 = load i64, ptr %18, align 8, !tbaa !19
  %148 = getelementptr inbounds double, ptr %146, i64 %147
  %149 = load double, ptr %148, align 8, !tbaa !21
  %150 = load double, ptr %12, align 8, !tbaa !21
  %151 = call double @llvm.fmuladd.f64(double %145, double %149, double %150)
  store double %151, ptr %12, align 8, !tbaa !21
  br label %152

152:                                              ; preds = %139
  %153 = load i64, ptr %18, align 8, !tbaa !19
  %154 = add nsw i64 %153, 1
  store i64 %154, ptr %18, align 8, !tbaa !19
  br label %133, !llvm.loop !45

155:                                              ; preds = %133
  %156 = load ptr, ptr %9, align 8, !tbaa !20
  %157 = load i64, ptr %19, align 8, !tbaa !19
  %158 = getelementptr inbounds double, ptr %156, i64 %157
  %159 = load double, ptr %158, align 8, !tbaa !21
  %160 = load double, ptr %12, align 8, !tbaa !21
  %161 = fmul double %160, %159
  store double %161, ptr %12, align 8, !tbaa !21
  store i64 0, ptr %18, align 8, !tbaa !19
  br label %162

162:                                              ; preds = %182, %155
  %163 = load i64, ptr %18, align 8, !tbaa !19
  %164 = load i64, ptr %7, align 8, !tbaa !19
  %165 = load i64, ptr %19, align 8, !tbaa !19
  %166 = sub nsw i64 %164, %165
  %167 = icmp slt i64 %163, %166
  br i1 %167, label %168, label %185

168:                                              ; preds = %162
  %169 = load double, ptr %12, align 8, !tbaa !21
  %170 = load ptr, ptr %10, align 8, !tbaa !20
  %171 = load i64, ptr %18, align 8, !tbaa !19
  %172 = getelementptr inbounds double, ptr %170, i64 %171
  %173 = load double, ptr %172, align 8, !tbaa !21
  %174 = load ptr, ptr %17, align 8, !tbaa !20
  %175 = load i64, ptr %18, align 8, !tbaa !19
  %176 = load i64, ptr %19, align 8, !tbaa !19
  %177 = add nsw i64 %175, %176
  %178 = getelementptr inbounds double, ptr %174, i64 %177
  %179 = load double, ptr %178, align 8, !tbaa !21
  %180 = fneg double %169
  %181 = call double @llvm.fmuladd.f64(double %180, double %173, double %179)
  store double %181, ptr %178, align 8, !tbaa !21
  br label %182

182:                                              ; preds = %168
  %183 = load i64, ptr %18, align 8, !tbaa !19
  %184 = add nsw i64 %183, 1
  store i64 %184, ptr %18, align 8, !tbaa !19
  br label %162, !llvm.loop !46

185:                                              ; preds = %162
  br label %186

186:                                              ; preds = %185
  %187 = load i64, ptr %20, align 8, !tbaa !19
  %188 = add nsw i64 %187, 1
  store i64 %188, ptr %20, align 8, !tbaa !19
  br label %124, !llvm.loop !47

189:                                              ; preds = %124
  %190 = load i64, ptr %19, align 8, !tbaa !19
  %191 = load i64, ptr %7, align 8, !tbaa !19
  %192 = sub nsw i64 %191, 1
  %193 = icmp slt i64 %190, %192
  br i1 %193, label %194, label %215

194:                                              ; preds = %189
  store i64 1, ptr %18, align 8, !tbaa !19
  br label %195

195:                                              ; preds = %211, %194
  %196 = load i64, ptr %18, align 8, !tbaa !19
  %197 = load i64, ptr %7, align 8, !tbaa !19
  %198 = load i64, ptr %19, align 8, !tbaa !19
  %199 = sub nsw i64 %197, %198
  %200 = icmp slt i64 %196, %199
  br i1 %200, label %201, label %214

201:                                              ; preds = %195
  %202 = load ptr, ptr %10, align 8, !tbaa !20
  %203 = load i64, ptr %18, align 8, !tbaa !19
  %204 = getelementptr inbounds double, ptr %202, i64 %203
  %205 = load double, ptr %204, align 8, !tbaa !21
  %206 = load ptr, ptr %16, align 8, !tbaa !20
  %207 = load i64, ptr %18, align 8, !tbaa !19
  %208 = load i64, ptr %19, align 8, !tbaa !19
  %209 = add nsw i64 %207, %208
  %210 = getelementptr inbounds double, ptr %206, i64 %209
  store double %205, ptr %210, align 8, !tbaa !21
  br label %211

211:                                              ; preds = %201
  %212 = load i64, ptr %18, align 8, !tbaa !19
  %213 = add nsw i64 %212, 1
  store i64 %213, ptr %18, align 8, !tbaa !19
  br label %195, !llvm.loop !48

214:                                              ; preds = %195
  br label %215

215:                                              ; preds = %214, %189
  br label %216

216:                                              ; preds = %215
  %217 = load i64, ptr %19, align 8, !tbaa !19
  %218 = add nsw i64 %217, 1
  store i64 %218, ptr %19, align 8, !tbaa !19
  br label %21, !llvm.loop !49

219:                                              ; preds = %21
  call void @llvm.lifetime.end.p0(i64 8, ptr %20) #4
  call void @llvm.lifetime.end.p0(i64 8, ptr %19) #4
  call void @llvm.lifetime.end.p0(i64 8, ptr %18) #4
  call void @llvm.lifetime.end.p0(i64 8, ptr %17) #4
  call void @llvm.lifetime.end.p0(i64 8, ptr %16) #4
  call void @llvm.lifetime.end.p0(i64 8, ptr %15) #4
  call void @llvm.lifetime.end.p0(i64 8, ptr %14) #4
  call void @llvm.lifetime.end.p0(i64 8, ptr %13) #4
  call void @llvm.lifetime.end.p0(i64 8, ptr %12) #4
  call void @llvm.lifetime.end.p0(i64 8, ptr %11) #4
  ret i32 0
}