; Function Attrs: nounwind uwtable
define noundef i32 @denseGEQRF(ptr noundef readonly captures(none) %0, i64 noundef %1, i64 noundef %2, ptr noundef captures(none) %3, ptr noundef captures(none) %4) local_unnamed_addr #0 {
  %6 = icmp sgt i64 %2, 0
  br i1 %6, label %.lr.ph126, label %._crit_edge127

.lr.ph126:                                        ; preds = %5
  %7 = add nsw i64 %1, -1
  br label %8

8:                                                ; preds = %.lr.ph126, %.loopexit
  %indvars.iv = phi i64 [ %1, %.lr.ph126 ], [ %indvars.iv.next, %.loopexit ]
  %.087124 = phi i64 [ 0, %.lr.ph126 ], [ %63, %.loopexit ]
  %9 = getelementptr inbounds nuw ptr, ptr %0, i64 %.087124
  %10 = load ptr, ptr %9, align 8, !tbaa !16
  %11 = getelementptr inbounds nuw double, ptr %10, i64 %.087124
  %12 = load double, ptr %11, align 8, !tbaa !17
  store double 1.000000e+00, ptr %4, align 8, !tbaa !17
  %13 = sub nsw i64 %1, %.087124
  %14 = icmp slt i64 %13, 2
  br i1 %14, label %._crit_edge.thread, label %.lr.ph

.lr.ph:                                           ; preds = %8, %.lr.ph
  %.08897 = phi i64 [ %18, %.lr.ph ], [ 1, %8 ]
  %.08996 = phi double [ %17, %.lr.ph ], [ 0.000000e+00, %8 ]
  %gep = getelementptr inbounds nuw double, ptr %11, i64 %.08897
  %15 = load double, ptr %gep, align 8, !tbaa !17
  %16 = getelementptr inbounds nuw double, ptr %4, i64 %.08897
  store double %15, ptr %16, align 8, !tbaa !17
  %17 = tail call double @llvm.fmuladd.f64(double %15, double %15, double %.08996)
  %18 = add nuw nsw i64 %.08897, 1
  %exitcond.not = icmp eq i64 %18, %indvars.iv
  br i1 %exitcond.not, label %._crit_edge, label %.lr.ph, !llvm.loop !38

._crit_edge:                                      ; preds = %.lr.ph
  %19 = fcmp une double %17, 0.000000e+00
  br i1 %19, label %20, label %._crit_edge.thread

20:                                               ; preds = %._crit_edge
  %21 = tail call double @llvm.fmuladd.f64(double %12, double %12, double %17)
  %22 = tail call double @SUNRsqrt(double noundef %21) #6
  %23 = fcmp ugt double %12, 0.000000e+00
  %24 = fsub double %12, %22
  %25 = fneg double %17
  %26 = fadd double %12, %22
  %27 = fdiv double %25, %26
  %28 = select i1 %23, double %27, double %24
  %29 = fmul double %28, %28
  %30 = fmul double %29, 2.000000e+00
  %31 = fadd double %17, %29
  %32 = fdiv double %30, %31
  %33 = getelementptr inbounds nuw double, ptr %3, i64 %.087124
  store double %32, ptr %33, align 8, !tbaa !17
  br label %.lr.ph101

.lr.ph101:                                        ; preds = %20, %.lr.ph101
  %.199 = phi i64 [ %37, %.lr.ph101 ], [ 1, %20 ]
  %34 = getelementptr inbounds nuw double, ptr %4, i64 %.199
  %35 = load double, ptr %34, align 8, !tbaa !17
  %36 = fdiv double %35, %28
  store double %36, ptr %34, align 8, !tbaa !17
  %37 = add nuw nsw i64 %.199, 1
  %exitcond129.not = icmp eq i64 %37, %indvars.iv
  br i1 %exitcond129.not, label %.lr.ph118, label %.lr.ph101, !llvm.loop !39

._crit_edge.thread:                               ; preds = %8, %._crit_edge
  %38 = getelementptr inbounds nuw double, ptr %3, i64 %.087124
  store double 0.000000e+00, ptr %38, align 8, !tbaa !17
  br label %.lr.ph118

.lr.ph118:                                        ; preds = %.lr.ph101, %._crit_edge.thread
  %39 = icmp sgt i64 %13, 0
  %40 = getelementptr inbounds nuw double, ptr %3, i64 %.087124
  br label %41

41:                                               ; preds = %.lr.ph118, %._crit_edge115
  %.0116 = phi i64 [ %.087124, %.lr.ph118 ], [ %58, %._crit_edge115 ]
  %42 = getelementptr inbounds nuw ptr, ptr %0, i64 %.0116
  %43 = load ptr, ptr %42, align 8, !tbaa !16
  %invariant.gep102 = getelementptr inbounds nuw double, ptr %43, i64 %.087124
  br i1 %39, label %.lr.ph107, label %._crit_edge115

.lr.ph107:                                        ; preds = %41, %.lr.ph107
  %.2105 = phi i64 [ %48, %.lr.ph107 ], [ 0, %41 ]
  %.190104 = phi double [ %47, %.lr.ph107 ], [ 0.000000e+00, %41 ]
  %gep103 = getelementptr inbounds nuw double, ptr %invariant.gep102, i64 %.2105
  %44 = load double, ptr %gep103, align 8, !tbaa !17
  %45 = getelementptr inbounds nuw double, ptr %4, i64 %.2105
  %46 = load double, ptr %45, align 8, !tbaa !17
  %47 = tail call double @llvm.fmuladd.f64(double %44, double %46, double %.190104)
  %48 = add nuw nsw i64 %.2105, 1
  %exitcond130.not = icmp eq i64 %48, %indvars.iv
  br i1 %exitcond130.not, label %.lr.ph114, label %.lr.ph107, !llvm.loop !40

.lr.ph114:                                        ; preds = %.lr.ph107
  %49 = load double, ptr %40, align 8, !tbaa !17
  %50 = fneg double %49
  %51 = fmul double %47, %50
  br label %52

52:                                               ; preds = %.lr.ph114, %52
  %.3112 = phi i64 [ 0, %.lr.ph114 ], [ %57, %52 ]
  %53 = getelementptr inbounds nuw double, ptr %4, i64 %.3112
  %54 = load double, ptr %53, align 8, !tbaa !17
  %gep111 = getelementptr inbounds nuw double, ptr %invariant.gep102, i64 %.3112
  %55 = load double, ptr %gep111, align 8, !tbaa !17
  %56 = tail call double @llvm.fmuladd.f64(double %51, double %54, double %55)
  store double %56, ptr %gep111, align 8, !tbaa !17
  %57 = add nuw nsw i64 %.3112, 1
  %exitcond131.not = icmp eq i64 %57, %indvars.iv
  br i1 %exitcond131.not, label %._crit_edge115, label %52, !llvm.loop !41

._crit_edge115:                                   ; preds = %52, %41
  %58 = add nuw nsw i64 %.0116, 1
  %exitcond132.not = icmp eq i64 %58, %2
  br i1 %exitcond132.not, label %._crit_edge119, label %41, !llvm.loop !42

._crit_edge119:                                   ; preds = %._crit_edge115
  %59 = icmp sge i64 %.087124, %7
  %brmerge = or i1 %59, %14
  br i1 %brmerge, label %.loopexit, label %.lr.ph123

.lr.ph123:                                        ; preds = %._crit_edge119, %.lr.ph123
  %.4122 = phi i64 [ %62, %.lr.ph123 ], [ 1, %._crit_edge119 ]
  %60 = getelementptr inbounds nuw double, ptr %4, i64 %.4122
  %61 = load double, ptr %60, align 8, !tbaa !17
  %gep121 = getelementptr inbounds nuw double, ptr %11, i64 %.4122
  store double %61, ptr %gep121, align 8, !tbaa !17
  %62 = add nuw nsw i64 %.4122, 1
  %exitcond134.not = icmp eq i64 %62, %indvars.iv
  br i1 %exitcond134.not, label %.loopexit, label %.lr.ph123, !llvm.loop !43

.loopexit:                                        ; preds = %.lr.ph123, %._crit_edge119
  %63 = add nuw nsw i64 %.087124, 1
  %indvars.iv.next = add i64 %indvars.iv, -1
  %exitcond135.not = icmp eq i64 %63, %2
  br i1 %exitcond135.not, label %._crit_edge127, label %8, !llvm.loop !44

._crit_edge127:                                   ; preds = %.loopexit, %5
  ret i32 0
}